(dp1
S'openssl1.0.1a_x86'
p2
(dp3
S'CVE-2012-0027'
p4
(lp5
S'OBJ_obj2txt'
p6
aS'c2i_ASN1_OBJECT'
p7
asS'CVE-2016-0704'
p8
(lp9
S'ASN1_item_ex_d2i'
p10
asS'CVE-2006-4343'
p11
(lp12
S'PKCS7_dataDecode'
p13
aS'PKCS7_dataDecode'
p14
aS'PKCS7_dataDecode'
p15
aS'PKCS7_dataDecode'
p16
aS'PKCS7_dataDecode'
p17
asS'CVE-2004-0975'
p18
(lp19
S'BN_mod_inverse'
p20
aS'gf2m_Mxy'
p21
aS'bn_cmp_part_words'
p22
aS'ec_GF2m_montgomery_point_multiply'
p23
aS'RAND_pseudo_bytes'
p24
asS'CVE-2013-6450'
p25
(lp26
S'dtls1_hm_fragment_new'
p27
aS'tls1_change_cipher_state'
p28
asS'CVE-2011-4108'
p29
(lp30
S'dtls1_get_message_fragment'
p31
asS'CVE-2011-4109'
p32
(lp33
S'test_mod_exp'
p34
asS'CVE-2010-4252'
p35
(lp36
S'PKCS7_dataDecode'
p37
aS'PKCS7_dataDecode'
p38
aS'PKCS7_dataDecode'
p39
aS'PKCS7_dataDecode'
p40
aS'PKCS7_dataDecode'
p41
asS'CVE-2012-2686'
p42
(lp43
S'aesni_cbc_hmac_sha1_cipher'
p44
aS'SSL_library_init'
p45
aS'tls1_cbc_remove_padding'
p46
aS'OpenSSL_add_all_ciphers'
p47
aS'sha1_update'
p48
asS'CVE-2009-3555'
p49
(lp50
S'PKCS7_dataDecode'
p51
aS'PKCS7_dataDecode'
p52
aS'PKCS7_dataDecode'
p53
aS'PKCS7_dataDecode'
p54
aS'PKCS7_dataDecode'
p55
asS'CVE-2012-2131'
p56
(lp57
S'bn_sub_words'
p58
aS'bn_sqr_comba8'
p59
aS'bn_sub_words'
p60
aS'bn_mul_comba4'
p61
aS'bn_mul_comba8'
p62
aS'bn_mul_comba4'
p63
aS'bn_sub_words'
p64
aS'test_mul'
p65
aS'bn_sqr_comba8'
p66
aS'bn_sub_words'
p67
aS'bn_mul_comba8'
p68
asS'CVE-2016-0703'
p69
(lp70
S'OBJ_obj2txt'
p71
aS'c2i_ASN1_OBJECT'
p72
asS'CVE-2015-3193'
p73
(lp74
S'test_mod_exp'
p75
asS'CVE-2015-3194'
p76
(lp77
S'rsa_pss_decode'
p78
aS'rsa_mgf1_decode'
p79
asS'CVE-2012-0050'
p80
(lp81
S'BN_GF2m_mod_inv'
p82
aS'BN_GF2m_mod_inv'
p83
asS'CVE-2015-3196'
p84
(lp85
S'ssl3_send_client_key_exchange'
p86
aS'ssl3_get_key_exchange'
p87
aS'ssl3_get_client_key_exchange'
p88
asS'CVE-2015-3197'
p89
(lp90
S'get_client_master_key'
p91
aS'get_client_hello'
p92
asS'CVE-2012-0884'
p93
(lp94
S'PKCS7_dataDecode'
p95
aS'PKCS7_dataDecode'
p96
aS'PKCS7_dataDecode'
p97
aS'PKCS7_dataDecode'
p98
aS'PKCS7_dataDecode'
p99
asS'CVE-2014-0198'
p100
(lp101
S'dtls1_get_message_fragment'
p102
asS'CVE-2006-4339'
p103
(lp104
S'ASN1_item_verify'
p105
aS'ECDSA_verify'
p106
aS'ASN1_item_verify'
p107
aS'DSA_verify'
p108
aS'ASN1_verify'
p109
asS'CVE-2010-3864'
p110
(lp111
S'ASN1_item_ex_d2i'
p112
asS'CVE-2014-0195'
p113
(lp114
S'dtls1_reassemble_fragment'
p115
asS'CVE-2005-2969'
p116
(lp117
S'ssl23_get_client_hello'
p118
asS'CVE-2004-0112'
p119
(lp120
S'ASN1_item_ex_d2i'
p121
asS'CVE-2008-1672'
p122
(lp123
S'aesni_cbc_hmac_sha1_cipher'
p124
aS'SSL_library_init'
p125
aS'tls1_cbc_remove_padding'
p126
aS'OpenSSL_add_all_ciphers'
p127
aS'sha1_update'
p128
asS'CVE-2013-6449'
p129
(lp130
sS'CVE-2006-3738'
p131
(lp132
S'dtls1_get_message_fragment'
p133
asS'CVE-2007-4995'
p134
(lp135
S'ssl3_get_cert_verify'
p136
asS'CVE-2003-0078'
p137
(lp138
S'ASN1_TYPE_cmp'
p139
asS'CVE-2014-5139'
p140
(lp141
S'ssl_set_client_disabled'
p142
aS'ssl3_get_server_hello'
p143
aS'ssl_cipher_list_to_bytes'
p144
aS'STACK_OF'
p145
asS'CVE-2011-3210'
p146
(lp147
S'rsa_item_verify'
p148
asS'CVE-2010-0433'
p149
(lp150
S'X509_to_X509_REQ'
p151
asS'CVE-2015-0286'
p152
(lp153
S'ASN1_TYPE_cmp'
p154
asS'CVE-2010-5298'
p155
(lp156
S'PKCS7_dataDecode'
p157
aS'PKCS7_dataDecode'
p158
aS'PKCS7_dataDecode'
p159
aS'PKCS7_dataDecode'
p160
aS'PKCS7_dataDecode'
p161
asS'CVE-2009-3245'
p162
(lp163
S'dtls1_reassemble_fragment'
p164
aS'dtls1_process_out_of_seq_message'
p165
asS'CVE-2015-1794'
p166
(lp167
S'ERR_load_SSL_strings'
p168
aS'ssl3_get_key_exchange'
p169
asS'CVE-2014-3513'
p170
(lp171
S'ssl_parse_clienthello_use_srtp_ext'
p172
aS'ssl_ctx_make_profiles'
p173
aS'STACK_OF'
p174
aS'ssl_add_clienthello_use_srtp_ext'
p175
aS'ssl_add_serverhello_tlsext'
p176
aS'ssl_add_clienthello_tlsext'
p177
aS'ssl_parse_clienthello_tlsext'
p178
aS'find_profile_by_name'
p179
aS'ssl_parse_serverhello_tlsext'
p180
asS'CVE-2010-4180'
p181
(lp182
S'PKCS7_dataDecode'
p183
aS'PKCS7_dataDecode'
p184
aS'PKCS7_dataDecode'
p185
aS'PKCS7_dataDecode'
p186
aS'PKCS7_dataDecode'
p187
asS'CVE-2014-3511'
p188
(lp189
S'ssl23_get_client_hello'
p190
asS'CVE-2014-3510'
p191
(lp192
S'ssl3_send_client_key_exchange'
p193
asS'CVE-2014-8275'
p194
(lp195
S'ASN1_item_verify'
p196
aS'ECDSA_verify'
p197
aS'ASN1_item_verify'
p198
aS'DSA_verify'
p199
aS'ASN1_verify'
p200
asS'CVE-2009-4355'
p201
(lp202
S'CVE-2003-0545'
p203
aS'CVE-2015-1792'
p204
ag4
aS'CVE-2011-4577'
p205
aS'CVE-2011-4576'
p206
aS'CVE-2008-0891'
p207
aS'CVE-2012-2333'
p208
aS'CVE-2013-4353'
p209
ag11
aS'CVE-2004-0079'
p210
ag18
aS'CVE-2014-0221'
p211
aS'CVE-2014-3506'
p212
aS'CVE-2014-3507'
p213
aS'CVE-2014-0224'
p214
ag25
aS'CVE-2007-5502'
p215
aS'CVE-2011-3207'
p216
aS'CVE-2014-3508'
p217
aS'CVE-2014-3509'
p218
aS'CVE-2003-0147'
p219
ag29
ag32
aS'CVE-2011-0014'
p220
aS'CVE-2015-0207'
p221
aS'CVE-2003-0851'
p222
ag35
ag42
aS'CVE-2014-3567'
p223
aS'CVE-2009-1377'
p224
aS'CVE-2006-2940'
p225
aS'CVE-2014-0076'
p226
aS'CVE-2002-0659'
p227
aS'CVE-2002-0656'
p228
aS'CVE-2002-0657'
p229
aS'CVE-2002-0655'
p230
aS'CVE-2008-5077'
p231
aS'CVE-2010-1633'
p232
ag49
ag56
ag69
ag73
ag76
ag8
ag84
ag89
aS'CVE-2014-3470'
p233
aS'CVE-2009-1386'
p234
aS'CVE-2013-0169'
p235
aS'CVE-2015-0205'
p236
aS'CVE-2015-0204'
p237
ag93
aS'CVE-2015-0206'
p238
aS'CVE-2014-3570'
p239
ag100
aS'CVE-2009-1378'
p240
ag103
aS'CVE-2016-0800'
p241
aS'CVE-2014-3572'
p242
aS'CVE-2015-3195'
p243
ag110
aS'CVE-2015-1789'
p244
ag113
aS'CVE-2007-5135'
p245
aS'CVE-2015-0285'
p246
ag140
aS'CVE-2015-0287'
p247
ag152
aS'CVE-2015-0289'
p248
aS'CVE-2015-0288'
p249
aS'CVE-2009-1379'
p250
ag119
ag122
aS'CVE-2006-2937'
p251
aS'CVE-2015-1788'
p252
ag131
aS'CVE-2014-8176'
p253
aS'CVE-2015-1787'
p254
aS'CVE-2014-3505'
p255
ag134
aS'CVE-2003-0131'
p256
ag137
aS'CVE-2014-3568'
p257
aS'CVE-2014-3569'
p258
aS'CVE-2009-0591'
p259
aS'CVE-2015-0292'
p260
aS'CVE-2015-0293'
p261
aS'CVE-2015-0290'
p262
aS'CVE-2015-0291'
p263
aS'CVE-2004-0081'
p264
ag116
aS'CVE-2016-0701'
p265
aS'CVE-2009-0590'
p266
aS'CVE-2014-0160'
p267
ag146
ag149
aS'CVE-2010-0742'
p268
aS'CVE-2010-0740'
p269
ag166
aS'CVE-2003-0544'
p270
aS'CVE-2016-0702'
p271
aS'CVE-2015-1790'
p272
aS'CVE-2015-1791'
p273
ag155
aS'CVE-2015-1793'
p274
aS'CVE-2012-2110'
p275
ag162
aS'CVE-2009-1387'
p276
aS'CVE-2011-4619'
p277
aS'CVE-2015-0209'
p278
aS'CVE-2003-0543'
p279
ag129
aS'CVE-2015-0208'
p280
ag170
ag181
ag188
ag191
ag194
ag201
aS'CVE-2016-0705'
p281
aS'CVE-2016-0798'
p282
aS'CVE-2016-0799'
p283
aS'CVE-2013-0166'
p284
aS'CVE-2014-3512'
p285
aS'CVE-2009-0789'
p286
aS'CVE-2016-0797'
p287
ag80
asg282
(lp288
S'ssl3_get_key_exchange'
p289
aS'ssl3_get_key_exchange'
p290
aS'ssl3_get_key_exchange'
p291
asg283
(lp292
S'rsa_pss_decode'
p293
aS'rsa_mgf1_decode'
p294
asg287
(lp295
S'ssl_set_client_disabled'
p296
aS'ssl3_get_server_hello'
p297
aS'ssl_cipher_list_to_bytes'
p298
aS'STACK_OF'
p299
asg204
(lp300
S'do_free_upto'
p301
aS'CMS_verify'
p302
aS'STACK_OF'
p303
aS'CMS_verify'
p304
aS'STACK_OF'
p305
aS'CMS_verify'
p306
aS'STACK_OF'
p307
asg216
(lp308
S'PKCS7_dataDecode'
p309
aS'PKCS7_dataDecode'
p310
aS'PKCS7_dataDecode'
p311
aS'PKCS7_dataDecode'
p312
aS'PKCS7_dataDecode'
p313
asg205
(lp314
S'OBJ_obj2txt'
p315
aS'c2i_ASN1_OBJECT'
p316
asg206
(lp317
S'EVP_DecodeUpdate'
p318
asg211
(lp319
S'dtls1_get_message_fragment'
p320
asg210
(lp321
S'PKCS7_dataDecode'
p322
aS'PKCS7_dataDecode'
p323
aS'PKCS7_dataDecode'
p324
aS'PKCS7_dataDecode'
p325
aS'PKCS7_dataDecode'
p326
asg266
(lp327
S'X509_verify_cert'
p328
asg259
(lp329
S'PKCS7_dataDecode'
p330
aS'PKCS7_dataDecode'
p331
aS'PKCS7_dataDecode'
p332
aS'PKCS7_dataDecode'
p333
aS'PKCS7_dataDecode'
p334
asg212
(lp335
S'dtls1_reassemble_fragment'
p336
aS'dtls1_retrieve_buffered_fragment'
p337
aS'dtls1_process_out_of_seq_message'
p338
asg213
(lp339
S'dtls1_reassemble_fragment'
p340
aS'dtls1_process_out_of_seq_message'
p341
asg214
(lp342
S'ssl3_connect'
p343
aS'ssl3_accept'
p344
aS'ssl3_get_server_hello'
p345
asg215
(lp346
S'tls1_process_heartbeat'
p347
aS'dtls1_process_heartbeat'
p348
asg217
(lp349
S'OBJ_obj2txt'
p350
aS'c2i_ASN1_OBJECT'
p351
asg218
(lp352
S'ssl_scan_serverhello_tlsext'
p353
asg250
(lp354
S'ssl23_get_client_hello'
p355
asg240
(lp356
S'dtls1_reassemble_fragment'
p357
aS'dtls1_process_out_of_seq_message'
p358
asg220
(lp359
S'EVP_DecodeUpdate'
p360
asg222
(lp361
S'EVP_DecodeUpdate'
p362
asg277
(lp363
S'ASN1_item_verify'
p364
aS'ECDSA_verify'
p365
aS'ASN1_item_verify'
p366
aS'DSA_verify'
p367
aS'ASN1_verify'
p368
asg224
(lp369
S'EVP_DecodeUpdate'
p370
asg225
(lp371
S'OBJ_obj2txt'
p372
aS'c2i_ASN1_OBJECT'
p373
asg227
(lp374
S'ssl23_get_client_hello'
p375
asg228
(lp376
S'ASN1_item_ex_d2i'
p377
asg229
(lp378
S'ssl3_get_key_exchange'
p379
aS'ssl3_get_key_exchange'
p380
aS'ssl3_get_key_exchange'
p381
asg230
(lp382
S'dtls1_get_message_fragment'
p383
asg231
(lp384
S'EVP_DecodeUpdate'
p385
asg232
(lp386
S'ssl_scan_serverhello_tlsext'
p387
asg278
(lp388
S'd2i_ECPrivateKey'
p389
asg280
(lp390
S'rsa_item_verify'
p391
asg284
(lp392
S'ASN1_item_verify'
p393
aS'OCSP_basic_verify'
p394
aS'STACK_OF'
p395
aS'ASN1_item_verify'
p396
asg207
(lp397
S'get_client_master_key'
p398
aS'get_client_hello'
p399
asg233
(lp400
S'ssl3_send_client_key_exchange'
p401
asg235
(lp402
S'ssl3_get_client_key_exchange'
p403
asg236
(lp404
S'ssl3_get_cert_verify'
p405
asg237
(lp406
S'ssl3_accept'
p407
aS'ssl3_accept'
p408
aS'ssl3_get_key_exchange'
p409
aS'dtls1_accept'
p410
asg221
(lp411
S'dtls1_listen'
p412
asg238
(lp413
S'dtls1_buffer_record'
p414
aS'dtls1_buffer_record'
p415
aS'dtls1_read_bytes'
p416
aS'dtls1_get_record'
p417
aS'printf'
p418
aS'dtls1_get_record'
p419
aS'dtls1_process_buffered_records'
p420
aS'dtls1_get_record'
p421
asg239
(lp422
S'bn_sub_words'
p423
aS'bn_sqr_comba8'
p424
aS'bn_sub_words'
p425
aS'bn_mul_comba4'
p426
aS'bn_mul_comba8'
p427
aS'bn_mul_comba4'
p428
aS'bn_sub_words'
p429
aS'test_mul'
p430
aS'bn_sqr_comba8'
p431
aS'bn_sub_words'
p432
aS'bn_mul_comba8'
p433
asg242
(lp434
S'ssl3_get_key_exchange'
p435
aS'ssl3_get_key_exchange'
p436
aS'ssl3_get_key_exchange'
p437
asg241
(lp438
S'get_client_master_key'
p439
aS'get_client_hello'
p440
asg209
(lp441
S'ssl3_take_mac'
p442
asg251
(lp443
S'get_client_master_key'
p444
aS'ssl2_generate_key_material'
p445
asg245
(lp446
S'dtls1_get_message_fragment'
p447
asg246
(lp448
S'ssl3_client_hello'
p449
asg247
(lp450
S'ASN1_item_ex_d2i'
p451
asg285
(lp452
S'srp_Calc_k'
p453
aS'SRP_Calc_u'
p454
asg248
(lp455
S'PKCS7_dataInit'
p456
aS'PKCS7_dataVerify'
p457
aS'PKCS7_ctrl'
p458
aS'PKCS7_dataFinal'
p459
aS'PKCS7_set_digest'
p460
aS'PKCS7_dataDecode'
p461
asg249
(lp462
S'X509_to_X509_REQ'
p463
asg226
(lp464
S'BN_mod_inverse'
p465
aS'gf2m_Mxy'
p466
aS'bn_cmp_part_words'
p467
aS'ec_GF2m_montgomery_point_multiply'
p468
aS'RAND_pseudo_bytes'
p469
asg244
(lp470
S'X509_cmp_time'
p471
asg252
(lp472
S'BN_GF2m_mod_inv'
p473
aS'BN_GF2m_mod_inv'
p474
asg253
(lp475
S'dtls1_clear_queues'
p476
asg254
(lp477
S'ssl3_get_client_key_exchange'
p478
asg255
(lp479
S'dtls1_reassemble_fragment'
p480
aS'dtls1_process_out_of_seq_message'
p481
asg256
(lp482
S'BN_GF2m_mod_inv'
p483
aS'BN_GF2m_mod_inv'
p484
asg257
(lp485
S'ssl23_get_client_method'
p486
aS'ssl23_get_server_method'
p487
aS'ssl23_get_client_hello'
p488
aS'ssl23_get_server_hello'
p489
asg258
(lp490
S'ssl23_get_client_hello'
p491
asg208
(lp492
S'asn1_template_noexp_d2i'
p493
aS'ASN1_item_ex_d2i'
p494
asg260
(lp495
S'EVP_DecodeUpdate'
p496
asg261
(lp497
S'get_client_master_key'
p498
aS'ssl2_generate_key_material'
p499
asg262
(lp500
S'ssl3_write_bytes'
p501
asg263
(lp502
S'tls1_set_server_sigalgs'
p503
aS'tls1_set_shared_sigalgs'
p504
asg264
(lp505
S'ASN1_item_verify'
p506
aS'ECDSA_verify'
p507
aS'ASN1_item_verify'
p508
aS'DSA_verify'
p509
aS'ASN1_verify'
p510
asg267
(lp511
S'tls1_process_heartbeat'
p512
aS'dtls1_process_heartbeat'
p513
asg268
(lp514
S'ssl3_get_client_key_exchange'
p515
asg269
(lp516
S'ssl23_get_client_method'
p517
aS'ssl23_get_server_method'
p518
aS'ssl23_get_client_hello'
p519
aS'ssl23_get_server_hello'
p520
asg203
(lp521
S'ssl_scan_serverhello_tlsext'
p522
asg270
(lp523
S'ssl3_accept'
p524
aS'ssl3_accept'
p525
aS'ssl3_get_key_exchange'
p526
aS'dtls1_accept'
p527
asg272
(lp528
S'PKCS7_dataDecode'
p529
aS'PKCS7_dataDecode'
p530
aS'PKCS7_dataDecode'
p531
aS'PKCS7_dataDecode'
p532
aS'PKCS7_dataDecode'
p533
asg273
(lp534
S'ssl_set_peer_cert_type'
p535
aS'ERR_load_SSL_strings'
p536
aS'SSL_SESSION_new'
p537
aS'ssl3_get_new_session_ticket'
p538
asg279
(lp539
S'DH_check'
p540
aS'ssl3_send_server_key_exchange'
p541
aS'ssl3_ctx_ctrl'
p542
aS'ssl3_ctrl'
p543
asg274
(lp544
S'X509_verify_cert'
p545
asg275
(lp546
S'DH_check'
p547
aS'ssl3_send_server_key_exchange'
p548
aS'ssl3_ctx_ctrl'
p549
aS'ssl3_ctrl'
p550
asg234
(lp551
S'test_mod_exp'
p552
asg276
(lp553
S'ASN1_item_verify'
p554
aS'OCSP_basic_verify'
p555
aS'STACK_OF'
p556
aS'ASN1_item_verify'
p557
asg223
(lp558
S'tls_decrypt_ticket'
p559
asg265
(lp560
S'DH_check'
p561
aS'ssl3_send_server_key_exchange'
p562
aS'ssl3_ctx_ctrl'
p563
aS'ssl3_ctrl'
p564
asg219
(lp565
S'test_mod_exp'
p566
asg271
(lp567
S'get_client_master_key'
p568
aS'ssl2_generate_key_material'
p569
asg281
(lp570
S'dtls1_get_message_fragment'
p571
asg286
(lp572
S'ssl3_get_client_key_exchange'
p573
asg243
(lp574
S'asn1_template_noexp_d2i'
p575
aS'ASN1_item_ex_d2i'
p576
ass.